target datalayout = "e-m:e-p270:32:32-p271:32:32-p272:64:64-i64:64-i128:128-f80:128-n8:16:32:64-S128"
target triple = "x86_64-pc-linux-gnu"

; Function Attrs: inlinehint nounwind uwtable
define internal void @put_tpel_pixels_mc20_c(ptr noundef %0, ptr noundef %1, i32 noundef %2, i32 noundef %3, i32 noundef %4) #1 {
  %6 = alloca ptr, align 8
  %7 = alloca ptr, align 8
  %8 = alloca i32, align 4
  %9 = alloca i32, align 4
  %10 = alloca i32, align 4
  %11 = alloca i32, align 4
  %12 = alloca i32, align 4
  store ptr %0, ptr %6, align 8, !tbaa !10
  store ptr %1, ptr %7, align 8, !tbaa !10
  store i32 %2, ptr %8, align 4, !tbaa !12
  store i32 %3, ptr %9, align 4, !tbaa !12
  store i32 %4, ptr %10, align 4, !tbaa !12
  call void @llvm.lifetime.start.p0(i64 4, ptr %11) #4
  call void @llvm.lifetime.start.p0(i64 4, ptr %12) #4
  store i32 0, ptr %11, align 4, !tbaa !12
  br label %13

13:                                               ; preds = %58, %5
  %14 = load i32, ptr %11, align 4, !tbaa !12
  %15 = load i32, ptr %10, align 4, !tbaa !12
  %16 = icmp slt i32 %14, %15
  br i1 %16, label %17, label %61

17:                                               ; preds = %13
  store i32 0, ptr %12, align 4, !tbaa !12
  br label %18

18:                                               ; preds = %46, %17
  %19 = load i32, ptr %12, align 4, !tbaa !12
  %20 = load i32, ptr %9, align 4, !tbaa !12
  %21 = icmp slt i32 %19, %20
  br i1 %21, label %22, label %49

22:                                               ; preds = %18
  %23 = load ptr, ptr %7, align 8, !tbaa !10
  %24 = load i32, ptr %12, align 4, !tbaa !12
  %25 = sext i32 %24 to i64
  %26 = getelementptr inbounds i8, ptr %23, i64 %25
  %27 = load i8, ptr %26, align 1, !tbaa !14
  %28 = zext i8 %27 to i32
  %29 = load ptr, ptr %7, align 8, !tbaa !10
  %30 = load i32, ptr %12, align 4, !tbaa !12
  %31 = add nsw i32 %30, 1
  %32 = sext i32 %31 to i64
  %33 = getelementptr inbounds i8, ptr %29, i64 %32
  %34 = load i8, ptr %33, align 1, !tbaa !14
  %35 = zext i8 %34 to i32
  %36 = mul nsw i32 2, %35
  %37 = add nsw i32 %28, %36
  %38 = add nsw i32 %37, 1
  %39 = mul nsw i32 %38, 683
  %40 = ashr i32 %39, 11
  %41 = trunc i32 %40 to i8
  %42 = load ptr, ptr %6, align 8, !tbaa !10
  %43 = load i32, ptr %12, align 4, !tbaa !12
  %44 = sext i32 %43 to i64
  %45 = getelementptr inbounds i8, ptr %42, i64 %44
  store i8 %41, ptr %45, align 1, !tbaa !14
  br label %46

46:                                               ; preds = %22
  %47 = load i32, ptr %12, align 4, !tbaa !12
  %48 = add nsw i32 %47, 1
  store i32 %48, ptr %12, align 4, !tbaa !12
  br label %18, !llvm.loop !18

49:                                               ; preds = %18
  %50 = load i32, ptr %8, align 4, !tbaa !12
  %51 = load ptr, ptr %7, align 8, !tbaa !10
  %52 = sext i32 %50 to i64
  %53 = getelementptr inbounds i8, ptr %51, i64 %52
  store ptr %53, ptr %7, align 8, !tbaa !10
  %54 = load i32, ptr %8, align 4, !tbaa !12
  %55 = load ptr, ptr %6, align 8, !tbaa !10
  %56 = sext i32 %54 to i64
  %57 = getelementptr inbounds i8, ptr %55, i64 %56
  store ptr %57, ptr %6, align 8, !tbaa !10
  br label %58

58:                                               ; preds = %49
  %59 = load i32, ptr %11, align 4, !tbaa !12
  %60 = add nsw i32 %59, 1
  store i32 %60, ptr %11, align 4, !tbaa !12
  br label %13, !llvm.loop !19

61:                                               ; preds = %13
  call void @llvm.lifetime.end.p0(i64 4, ptr %12) #4
  call void @llvm.lifetime.end.p0(i64 4, ptr %11) #4
  ret void
}