; Function Attrs: inlinehint nofree norecurse nosync nounwind memory(argmem: readwrite) uwtable
define internal void @put_tpel_pixels_mc20_c(ptr noundef writeonly captures(none) %0, ptr noundef readonly captures(none) %1, i32 noundef %2, i32 noundef %3, i32 noundef %4) #1 {
  %6 = icmp sgt i32 %4, 0
  br i1 %6, label %.preheader.lr.ph, label %._crit_edge22

.preheader.lr.ph:                                 ; preds = %5
  %7 = icmp sgt i32 %3, 0
  %8 = sext i32 %2 to i64
  br i1 %7, label %.preheader.us.preheader, label %._crit_edge22

.preheader.us.preheader:                          ; preds = %.preheader.lr.ph
  %wide.trip.count = zext nneg i32 %3 to i64
  br label %.preheader.us

.preheader.us:                                    ; preds = %.preheader.us.preheader, %._crit_edge.us
  %.01521.us = phi i32 [ %25, %._crit_edge.us ], [ 0, %.preheader.us.preheader ]
  %.01620.us = phi ptr [ %24, %._crit_edge.us ], [ %0, %.preheader.us.preheader ]
  %.01719.us = phi ptr [ %23, %._crit_edge.us ], [ %1, %.preheader.us.preheader ]
  br label %9

9:                                                ; preds = %.preheader.us, %9
  %indvars.iv = phi i64 [ 0, %.preheader.us ], [ %indvars.iv.next, %9 ]
  %10 = getelementptr inbounds nuw i8, ptr %.01719.us, i64 %indvars.iv
  %11 = load i8, ptr %10, align 1, !tbaa !8
  %12 = zext i8 %11 to i32
  %indvars.iv.next = add nuw nsw i64 %indvars.iv, 1
  %13 = getelementptr inbounds nuw i8, ptr %.01719.us, i64 %indvars.iv.next
  %14 = load i8, ptr %13, align 1, !tbaa !8
  %15 = zext i8 %14 to i32
  %16 = shl nuw nsw i32 %15, 1
  %17 = add nuw nsw i32 %16, %12
  %18 = mul nuw nsw i32 %17, 683
  %19 = add nuw nsw i32 %18, 683
  %20 = lshr i32 %19, 11
  %21 = trunc nuw i32 %20 to i8
  %22 = getelementptr inbounds nuw i8, ptr %.01620.us, i64 %indvars.iv
  store i8 %21, ptr %22, align 1, !tbaa !8
  %exitcond.not = icmp eq i64 %indvars.iv.next, %wide.trip.count
  br i1 %exitcond.not, label %._crit_edge.us, label %9, !llvm.loop !19

._crit_edge.us:                                   ; preds = %9
  %23 = getelementptr inbounds i8, ptr %.01719.us, i64 %8
  %24 = getelementptr inbounds i8, ptr %.01620.us, i64 %8
  %25 = add nuw nsw i32 %.01521.us, 1
  %exitcond25.not = icmp eq i32 %25, %4
  br i1 %exitcond25.not, label %._crit_edge22, label %.preheader.us, !llvm.loop !20

._crit_edge22:                                    ; preds = %._crit_edge.us, %.preheader.lr.ph, %5
  ret void
}